target datalayout = "e-m:e-p270:32:32-p271:32:32-p272:64:64-i64:64-i128:128-f80:128-n8:16:32:64-S128"
target triple = "x86_64-pc-linux-gnu"

%struct.Clobbers = type { [4 x i64] }
%struct.__va_list_tag = type { i32, i32, ptr, ptr }

; Function Attrs: nounwind uwtable
define internal void @clobbers_make(ptr dead_on_unwind noalias writable sret(%struct.Clobbers) align 8 %0, i32 noundef %1, ...) #0 {
  %3 = alloca i32, align 4
  %4 = alloca i32, align 4
  %5 = alloca i32, align 4
  %6 = alloca [1 x %struct.__va_list_tag], align 16
  %7 = alloca i32, align 4
  store i32 %1, ptr %3, align 4
  call void @llvm.memset.p0.i64(ptr align 8 %0, i8 0, i64 32, i1 false)
  %8 = load i32, ptr %3, align 4
  %9 = urem i32 %8, 64
  store i32 %9, ptr %4, align 4
  %10 = load i32, ptr %3, align 4
  %11 = udiv i32 %10, 64
  store i32 %11, ptr %5, align 4
  %12 = load i32, ptr %4, align 4
  %13 = zext i32 %12 to i64
  %14 = shl i64 1, %13
  %15 = getelementptr inbounds %struct.Clobbers, ptr %0, i32 0, i32 0
  %16 = load i32, ptr %5, align 4
  %17 = zext i32 %16 to i64
  %18 = getelementptr inbounds [4 x i64], ptr %15, i64 0, i64 %17
  %19 = load i64, ptr %18, align 8
  %20 = or i64 %19, %14
  store i64 %20, ptr %18, align 8
  %21 = getelementptr inbounds [1 x %struct.__va_list_tag], ptr %6, i64 0, i64 0
  call void @llvm.va_start.p0(ptr %21)
  br label %22

22:                                               ; preds = %40, %2
  %23 = getelementptr inbounds [1 x %struct.__va_list_tag], ptr %6, i64 0, i64 0
  %24 = getelementptr inbounds %struct.__va_list_tag, ptr %23, i32 0, i32 0
  %25 = load i32, ptr %24, align 16
  %26 = icmp ule i32 %25, 40
  br i1 %26, label %27, label %32

27:                                               ; preds = %22
  %28 = getelementptr inbounds %struct.__va_list_tag, ptr %23, i32 0, i32 3
  %29 = load ptr, ptr %28, align 16
  %30 = getelementptr i8, ptr %29, i32 %25
  %31 = add i32 %25, 8
  store i32 %31, ptr %24, align 16
  br label %36

32:                                               ; preds = %22
  %33 = getelementptr inbounds %struct.__va_list_tag, ptr %23, i32 0, i32 2
  %34 = load ptr, ptr %33, align 8
  %35 = getelementptr i8, ptr %34, i32 8
  store ptr %35, ptr %33, align 8
  br label %36

36:                                               ; preds = %32, %27
  %37 = phi ptr [ %30, %27 ], [ %34, %32 ]
  %38 = load i32, ptr %37, align 4
  store i32 %38, ptr %7, align 4
  %39 = icmp sgt i32 %38, -1
  br i1 %39, label %40, label %54

40:                                               ; preds = %36
  %41 = load i32, ptr %7, align 4
  %42 = srem i32 %41, 64
  store i32 %42, ptr %4, align 4
  %43 = load i32, ptr %7, align 4
  %44 = sdiv i32 %43, 64
  store i32 %44, ptr %5, align 4
  %45 = load i32, ptr %4, align 4
  %46 = zext i32 %45 to i64
  %47 = shl i64 1, %46
  %48 = getelementptr inbounds %struct.Clobbers, ptr %0, i32 0, i32 0
  %49 = load i32, ptr %5, align 4
  %50 = zext i32 %49 to i64
  %51 = getelementptr inbounds [4 x i64], ptr %48, i64 0, i64 %50
  %52 = load i64, ptr %51, align 8
  %53 = or i64 %52, %47
  store i64 %53, ptr %51, align 8
  br label %22, !llvm.loop !36

54:                                               ; preds = %36
  %55 = getelementptr inbounds [1 x %struct.__va_list_tag], ptr %6, i64 0, i64 0
  call void @llvm.va_end.p0(ptr %55)
  ret void
}