; Function Attrs: nofree norecurse nosync nounwind uwtable
define internal void @clobbers_make(ptr dead_on_unwind noalias nocapture writable sret(%struct.Clobbers) align 8 %0, i32 noundef %1, ...) unnamed_addr #3 {
  %3 = alloca [1 x %struct.__va_list_tag], align 16
  %4 = getelementptr inbounds i8, ptr %0, i64 8
  tail call void @llvm.memset.p0.i64(ptr noundef nonnull align 8 dereferenceable(32) %4, i8 0, i64 24, i1 false)
  %5 = and i32 %1, 63
  %6 = zext nneg i32 %5 to i64
  %7 = shl nuw nsw i64 1, %6
  store i64 %7, ptr %0, align 8
  call void @llvm.va_start.p0(ptr nonnull %3)
  %.promoted = load i32, ptr %3, align 16
  %8 = getelementptr inbounds i8, ptr %3, i64 8
  %9 = getelementptr inbounds i8, ptr %3, i64 16
  %10 = load ptr, ptr %9, align 16
  %.promoted9 = load ptr, ptr %8, align 8
  br label %11

11:                                               ; preds = %27, %2
  %12 = phi ptr [ %22, %27 ], [ %.promoted9, %2 ]
  %13 = phi i32 [ %23, %27 ], [ %.promoted, %2 ]
  %14 = icmp ult i32 %13, 41
  br i1 %14, label %15, label %19

15:                                               ; preds = %11
  %16 = zext nneg i32 %13 to i64
  %17 = getelementptr i8, ptr %10, i64 %16
  %18 = add nuw nsw i32 %13, 8
  store i32 %18, ptr %3, align 16
  br label %21

19:                                               ; preds = %11
  %20 = getelementptr i8, ptr %12, i64 8
  store ptr %20, ptr %8, align 8
  br label %21

21:                                               ; preds = %19, %15
  %22 = phi ptr [ %12, %15 ], [ %20, %19 ]
  %23 = phi i32 [ %18, %15 ], [ %13, %19 ]
  %24 = phi ptr [ %17, %15 ], [ %12, %19 ]
  %25 = load i32, ptr %24, align 4
  %26 = icmp sgt i32 %25, -1
  br i1 %26, label %27, label %36

27:                                               ; preds = %21
  %28 = and i32 %25, 63
  %29 = lshr i32 %25, 6
  %30 = zext nneg i32 %28 to i64
  %31 = shl nuw i64 1, %30
  %32 = zext nneg i32 %29 to i64
  %33 = getelementptr inbounds [4 x i64], ptr %0, i64 0, i64 %32
  %34 = load i64, ptr %33, align 8
  %35 = or i64 %34, %31
  store i64 %35, ptr %33, align 8
  br label %11, !llvm.loop !37

36:                                               ; preds = %21
  call void @llvm.va_end.p0(ptr nonnull %3)
  ret void
}